target datalayout = "e-m:e-p270:32:32-p271:32:32-p272:64:64-i64:64-i128:128-f80:128-n8:16:32:64-S128"
target triple = "x86_64-pc-linux-gnu"

%struct.dt_develop_blend_params_t = type { i32, i32, i32, float, float, i32, i32, i32, float, i32, float, float, float, float, i32, [2 x i32], [64 x float], [16 x float], [20 x i8], i32, i32, i32 }

; Function Attrs: nounwind uwtable
define void @dt_develop_blendif_process_parameters(ptr noalias noundef %0, ptr noundef %1) #0 {
  %3 = alloca ptr, align 8
  %4 = alloca ptr, align 8
  %5 = alloca i32, align 4
  %6 = alloca i32, align 4
  %7 = alloca ptr, align 8
  %8 = alloca ptr, align 8
  %9 = alloca i64, align 8
  %10 = alloca i64, align 8
  %11 = alloca float, align 4
  store ptr %0, ptr %3, align 8, !tbaa !50
  store ptr %1, ptr %4, align 8, !tbaa !30
  call void @llvm.lifetime.start.p0(i64 4, ptr %5) #10
  %12 = load ptr, ptr %4, align 8, !tbaa !30
  %13 = getelementptr inbounds nuw %struct.dt_develop_blend_params_t, ptr %12, i32 0, i32 1
  %14 = load i32, ptr %13, align 4, !tbaa !31
  store i32 %14, ptr %5, align 4, !tbaa !11
  call void @llvm.lifetime.start.p0(i64 4, ptr %6) #10
  %15 = load ptr, ptr %4, align 8, !tbaa !30
  %16 = getelementptr inbounds nuw %struct.dt_develop_blend_params_t, ptr %15, i32 0, i32 7
  %17 = load i32, ptr %16, align 4, !tbaa !37
  store i32 %17, ptr %6, align 4, !tbaa !11
  call void @llvm.lifetime.start.p0(i64 8, ptr %7) #10
  %18 = load ptr, ptr %4, align 8, !tbaa !30
  %19 = getelementptr inbounds nuw %struct.dt_develop_blend_params_t, ptr %18, i32 0, i32 16
  %20 = getelementptr inbounds [64 x float], ptr %19, i64 0, i64 0
  store ptr %20, ptr %7, align 8, !tbaa !50
  call void @llvm.lifetime.start.p0(i64 8, ptr %8) #10
  %21 = load ptr, ptr %4, align 8, !tbaa !30
  %22 = getelementptr inbounds nuw %struct.dt_develop_blend_params_t, ptr %21, i32 0, i32 17
  %23 = getelementptr inbounds [16 x float], ptr %22, i64 0, i64 0
  store ptr %23, ptr %8, align 8, !tbaa !50
  call void @llvm.lifetime.start.p0(i64 8, ptr %9) #10
  store i64 0, ptr %9, align 8, !tbaa !52
  call void @llvm.lifetime.start.p0(i64 8, ptr %10) #10
  store i64 0, ptr %10, align 8, !tbaa !52
  br label %24

24:                                               ; preds = %234, %2
  %25 = load i64, ptr %9, align 8, !tbaa !52
  %26 = icmp ult i64 %25, 16
  br i1 %26, label %28, label %27

27:                                               ; preds = %24
  call void @llvm.lifetime.end.p0(i64 8, ptr %10) #10
  call void @llvm.lifetime.end.p0(i64 8, ptr %9) #10
  br label %239

28:                                               ; preds = %24
  %29 = load i32, ptr %6, align 4, !tbaa !11
  %30 = load i64, ptr %9, align 8, !tbaa !52
  %31 = trunc i64 %30 to i32
  %32 = shl i32 1, %31
  %33 = and i32 %29, %32
  %34 = icmp ne i32 %33, 0
  br i1 %34, label %35, label %208

35:                                               ; preds = %28
  call void @llvm.lifetime.start.p0(i64 4, ptr %11) #10
  store float 0.000000e+00, ptr %11, align 4, !tbaa !34
  %36 = load i32, ptr %5, align 4, !tbaa !11
  %37 = icmp eq i32 %36, 2
  br i1 %37, label %38, label %51

38:                                               ; preds = %35
  %39 = load i64, ptr %9, align 8, !tbaa !52
  %40 = icmp eq i64 %39, 1
  br i1 %40, label %50, label %41

41:                                               ; preds = %38
  %42 = load i64, ptr %9, align 8, !tbaa !52
  %43 = icmp eq i64 %42, 5
  br i1 %43, label %50, label %44

44:                                               ; preds = %41
  %45 = load i64, ptr %9, align 8, !tbaa !52
  %46 = icmp eq i64 %45, 2
  br i1 %46, label %50, label %47

47:                                               ; preds = %44
  %48 = load i64, ptr %9, align 8, !tbaa !52
  %49 = icmp eq i64 %48, 6
  br i1 %49, label %50, label %51

50:                                               ; preds = %47, %44, %41, %38
  store float 5.000000e-01, ptr %11, align 4, !tbaa !34
  br label %51

51:                                               ; preds = %50, %47, %35
  %52 = load ptr, ptr %7, align 8, !tbaa !50
  %53 = load i64, ptr %9, align 8, !tbaa !52
  %54 = mul i64 %53, 4
  %55 = add i64 %54, 0
  %56 = getelementptr inbounds nuw float, ptr %52, i64 %55
  %57 = load float, ptr %56, align 4, !tbaa !34
  %58 = load float, ptr %11, align 4, !tbaa !34
  %59 = fsub reassoc nsz arcp contract afn float %57, %58
  %60 = load ptr, ptr %8, align 8, !tbaa !50
  %61 = load i64, ptr %9, align 8, !tbaa !52
  %62 = getelementptr inbounds nuw float, ptr %60, i64 %61
  %63 = load float, ptr %62, align 4, !tbaa !34
  %64 = call reassoc nsz arcp contract afn float @llvm.exp2.f32(float %63)
  %65 = fmul reassoc nsz arcp contract afn float %59, %64
  %66 = load ptr, ptr %3, align 8, !tbaa !50
  %67 = load i64, ptr %10, align 8, !tbaa !52
  %68 = add i64 %67, 0
  %69 = getelementptr inbounds nuw float, ptr %66, i64 %68
  store float %65, ptr %69, align 4, !tbaa !34
  %70 = load ptr, ptr %7, align 8, !tbaa !50
  %71 = load i64, ptr %9, align 8, !tbaa !52
  %72 = mul i64 %71, 4
  %73 = add i64 %72, 1
  %74 = getelementptr inbounds nuw float, ptr %70, i64 %73
  %75 = load float, ptr %74, align 4, !tbaa !34
  %76 = load float, ptr %11, align 4, !tbaa !34
  %77 = fsub reassoc nsz arcp contract afn float %75, %76
  %78 = load ptr, ptr %8, align 8, !tbaa !50
  %79 = load i64, ptr %9, align 8, !tbaa !52
  %80 = getelementptr inbounds nuw float, ptr %78, i64 %79
  %81 = load float, ptr %80, align 4, !tbaa !34
  %82 = call reassoc nsz arcp contract afn float @llvm.exp2.f32(float %81)
  %83 = fmul reassoc nsz arcp contract afn float %77, %82
  %84 = load ptr, ptr %3, align 8, !tbaa !50
  %85 = load i64, ptr %10, align 8, !tbaa !52
  %86 = add i64 %85, 1
  %87 = getelementptr inbounds nuw float, ptr %84, i64 %86
  store float %83, ptr %87, align 4, !tbaa !34
  %88 = load ptr, ptr %7, align 8, !tbaa !50
  %89 = load i64, ptr %9, align 8, !tbaa !52
  %90 = mul i64 %89, 4
  %91 = add i64 %90, 2
  %92 = getelementptr inbounds nuw float, ptr %88, i64 %91
  %93 = load float, ptr %92, align 4, !tbaa !34
  %94 = load float, ptr %11, align 4, !tbaa !34
  %95 = fsub reassoc nsz arcp contract afn float %93, %94
  %96 = load ptr, ptr %8, align 8, !tbaa !50
  %97 = load i64, ptr %9, align 8, !tbaa !52
  %98 = getelementptr inbounds nuw float, ptr %96, i64 %97
  %99 = load float, ptr %98, align 4, !tbaa !34
  %100 = call reassoc nsz arcp contract afn float @llvm.exp2.f32(float %99)
  %101 = fmul reassoc nsz arcp contract afn float %95, %100
  %102 = load ptr, ptr %3, align 8, !tbaa !50
  %103 = load i64, ptr %10, align 8, !tbaa !52
  %104 = add i64 %103, 2
  %105 = getelementptr inbounds nuw float, ptr %102, i64 %104
  store float %101, ptr %105, align 4, !tbaa !34
  %106 = load ptr, ptr %7, align 8, !tbaa !50
  %107 = load i64, ptr %9, align 8, !tbaa !52
  %108 = mul i64 %107, 4
  %109 = add i64 %108, 3
  %110 = getelementptr inbounds nuw float, ptr %106, i64 %109
  %111 = load float, ptr %110, align 4, !tbaa !34
  %112 = load float, ptr %11, align 4, !tbaa !34
  %113 = fsub reassoc nsz arcp contract afn float %111, %112
  %114 = load ptr, ptr %8, align 8, !tbaa !50
  %115 = load i64, ptr %9, align 8, !tbaa !52
  %116 = getelementptr inbounds nuw float, ptr %114, i64 %115
  %117 = load float, ptr %116, align 4, !tbaa !34
  %118 = call reassoc nsz arcp contract afn float @llvm.exp2.f32(float %117)
  %119 = fmul reassoc nsz arcp contract afn float %113, %118
  %120 = load ptr, ptr %3, align 8, !tbaa !50
  %121 = load i64, ptr %10, align 8, !tbaa !52
  %122 = add i64 %121, 3
  %123 = getelementptr inbounds nuw float, ptr %120, i64 %122
  store float %119, ptr %123, align 4, !tbaa !34
  %124 = load ptr, ptr %3, align 8, !tbaa !50
  %125 = load i64, ptr %10, align 8, !tbaa !52
  %126 = add i64 %125, 1
  %127 = getelementptr inbounds nuw float, ptr %124, i64 %126
  %128 = load float, ptr %127, align 4, !tbaa !34
  %129 = load ptr, ptr %3, align 8, !tbaa !50
  %130 = load i64, ptr %10, align 8, !tbaa !52
  %131 = add i64 %130, 0
  %132 = getelementptr inbounds nuw float, ptr %129, i64 %131
  %133 = load float, ptr %132, align 4, !tbaa !34
  %134 = fsub reassoc nsz arcp contract afn float %128, %133
  %135 = call reassoc nsz arcp contract afn float @llvm.maxnum.f32(float 0x3F50624DE0000000, float %134)
  %136 = fdiv reassoc nsz arcp contract afn float 1.000000e+00, %135
  %137 = load ptr, ptr %3, align 8, !tbaa !50
  %138 = load i64, ptr %10, align 8, !tbaa !52
  %139 = add i64 %138, 4
  %140 = getelementptr inbounds nuw float, ptr %137, i64 %139
  store float %136, ptr %140, align 4, !tbaa !34
  %141 = load ptr, ptr %3, align 8, !tbaa !50
  %142 = load i64, ptr %10, align 8, !tbaa !52
  %143 = add i64 %142, 3
  %144 = getelementptr inbounds nuw float, ptr %141, i64 %143
  %145 = load float, ptr %144, align 4, !tbaa !34
  %146 = load ptr, ptr %3, align 8, !tbaa !50
  %147 = load i64, ptr %10, align 8, !tbaa !52
  %148 = add i64 %147, 2
  %149 = getelementptr inbounds nuw float, ptr %146, i64 %148
  %150 = load float, ptr %149, align 4, !tbaa !34
  %151 = fsub reassoc nsz arcp contract afn float %145, %150
  %152 = call reassoc nsz arcp contract afn float @llvm.maxnum.f32(float 0x3F50624DE0000000, float %151)
  %153 = fdiv reassoc nsz arcp contract afn float 1.000000e+00, %152
  %154 = load ptr, ptr %3, align 8, !tbaa !50
  %155 = load i64, ptr %10, align 8, !tbaa !52
  %156 = add i64 %155, 5
  %157 = getelementptr inbounds nuw float, ptr %154, i64 %156
  store float %153, ptr %157, align 4, !tbaa !34
  %158 = load ptr, ptr %7, align 8, !tbaa !50
  %159 = load i64, ptr %9, align 8, !tbaa !52
  %160 = mul i64 %159, 4
  %161 = add i64 %160, 0
  %162 = getelementptr inbounds nuw float, ptr %158, i64 %161
  %163 = load float, ptr %162, align 4, !tbaa !34
  %164 = fcmp reassoc nsz arcp contract afn ole float %163, 0.000000e+00
  br i1 %164, label %165, label %182

165:                                              ; preds = %51
  %166 = load ptr, ptr %7, align 8, !tbaa !50
  %167 = load i64, ptr %9, align 8, !tbaa !52
  %168 = mul i64 %167, 4
  %169 = add i64 %168, 1
  %170 = getelementptr inbounds nuw float, ptr %166, i64 %169
  %171 = load float, ptr %170, align 4, !tbaa !34
  %172 = fcmp reassoc nsz arcp contract afn ole float %171, 0.000000e+00
  br i1 %172, label %173, label %182

173:                                              ; preds = %165
  %174 = load ptr, ptr %3, align 8, !tbaa !50
  %175 = load i64, ptr %10, align 8, !tbaa !52
  %176 = add i64 %175, 0
  %177 = getelementptr inbounds nuw float, ptr %174, i64 %176
  store float 0xC7EFFFFFE0000000, ptr %177, align 4, !tbaa !34
  %178 = load ptr, ptr %3, align 8, !tbaa !50
  %179 = load i64, ptr %10, align 8, !tbaa !52
  %180 = add i64 %179, 1
  %181 = getelementptr inbounds nuw float, ptr %178, i64 %180
  store float 0xC7EFFFFFE0000000, ptr %181, align 4, !tbaa !34
  br label %182

182:                                              ; preds = %173, %165, %51
  %183 = load ptr, ptr %7, align 8, !tbaa !50
  %184 = load i64, ptr %9, align 8, !tbaa !52
  %185 = mul i64 %184, 4
  %186 = add i64 %185, 2
  %187 = getelementptr inbounds nuw float, ptr %183, i64 %186
  %188 = load float, ptr %187, align 4, !tbaa !34
  %189 = fcmp reassoc nsz arcp contract afn oge float %188, 1.000000e+00
  br i1 %189, label %190, label %207

190:                                              ; preds = %182
  %191 = load ptr, ptr %7, align 8, !tbaa !50
  %192 = load i64, ptr %9, align 8, !tbaa !52
  %193 = mul i64 %192, 4
  %194 = add i64 %193, 3
  %195 = getelementptr inbounds nuw float, ptr %191, i64 %194
  %196 = load float, ptr %195, align 4, !tbaa !34
  %197 = fcmp reassoc nsz arcp contract afn oge float %196, 1.000000e+00
  br i1 %197, label %198, label %207

198:                                              ; preds = %190
  %199 = load ptr, ptr %3, align 8, !tbaa !50
  %200 = load i64, ptr %10, align 8, !tbaa !52
  %201 = add i64 %200, 2
  %202 = getelementptr inbounds nuw float, ptr %199, i64 %201
  store float 0x47EFFFFFE0000000, ptr %202, align 4, !tbaa !34
  %203 = load ptr, ptr %3, align 8, !tbaa !50
  %204 = load i64, ptr %10, align 8, !tbaa !52
  %205 = add i64 %204, 3
  %206 = getelementptr inbounds nuw float, ptr %203, i64 %205
  store float 0x47EFFFFFE0000000, ptr %206, align 4, !tbaa !34
  br label %207

207:                                              ; preds = %198, %190, %182
  call void @llvm.lifetime.end.p0(i64 4, ptr %11) #10
  br label %233

208:                                              ; preds = %28
  %209 = load ptr, ptr %3, align 8, !tbaa !50
  %210 = load i64, ptr %10, align 8, !tbaa !52
  %211 = add i64 %210, 0
  %212 = getelementptr inbounds nuw float, ptr %209, i64 %211
  store float 0xC7EFFFFFE0000000, ptr %212, align 4, !tbaa !34
  %213 = load ptr, ptr %3, align 8, !tbaa !50
  %214 = load i64, ptr %10, align 8, !tbaa !52
  %215 = add i64 %214, 1
  %216 = getelementptr inbounds nuw float, ptr %213, i64 %215
  store float 0xC7EFFFFFE0000000, ptr %216, align 4, !tbaa !34
  %217 = load ptr, ptr %3, align 8, !tbaa !50
  %218 = load i64, ptr %10, align 8, !tbaa !52
  %219 = add i64 %218, 2
  %220 = getelementptr inbounds nuw float, ptr %217, i64 %219
  store float 0x47EFFFFFE0000000, ptr %220, align 4, !tbaa !34
  %221 = load ptr, ptr %3, align 8, !tbaa !50
  %222 = load i64, ptr %10, align 8, !tbaa !52
  %223 = add i64 %222, 3
  %224 = getelementptr inbounds nuw float, ptr %221, i64 %223
  store float 0x47EFFFFFE0000000, ptr %224, align 4, !tbaa !34
  %225 = load ptr, ptr %3, align 8, !tbaa !50
  %226 = load i64, ptr %10, align 8, !tbaa !52
  %227 = add i64 %226, 4
  %228 = getelementptr inbounds nuw float, ptr %225, i64 %227
  store float 0.000000e+00, ptr %228, align 4, !tbaa !34
  %229 = load ptr, ptr %3, align 8, !tbaa !50
  %230 = load i64, ptr %10, align 8, !tbaa !52
  %231 = add i64 %230, 5
  %232 = getelementptr inbounds nuw float, ptr %229, i64 %231
  store float 0.000000e+00, ptr %232, align 4, !tbaa !34
  br label %233

233:                                              ; preds = %208, %207
  br label %234

234:                                              ; preds = %233
  %235 = load i64, ptr %9, align 8, !tbaa !52
  %236 = add i64 %235, 1
  store i64 %236, ptr %9, align 8, !tbaa !52
  %237 = load i64, ptr %10, align 8, !tbaa !52
  %238 = add i64 %237, 6
  store i64 %238, ptr %10, align 8, !tbaa !52
  br label %24

239:                                              ; preds = %27
  call void @llvm.lifetime.end.p0(i64 8, ptr %8) #10
  call void @llvm.lifetime.end.p0(i64 8, ptr %7) #10
  call void @llvm.lifetime.end.p0(i64 4, ptr %6) #10
  call void @llvm.lifetime.end.p0(i64 4, ptr %5) #10
  ret void
}