; Function Attrs: nofree norecurse nosync nounwind memory(argmem: readwrite) uwtable
define void @dt_develop_blendif_process_parameters(ptr noalias noundef writeonly captures(none) %0, ptr noundef readonly captures(none) %1) local_unnamed_addr #6 {
  %3 = getelementptr inbounds nuw i8, ptr %1, i64 4
  %4 = load i32, ptr %3, align 4, !tbaa !28
  %5 = getelementptr inbounds nuw i8, ptr %1, i64 28
  %6 = load i32, ptr %5, align 4, !tbaa !34
  %7 = getelementptr inbounds nuw i8, ptr %1, i64 68
  %8 = getelementptr inbounds nuw i8, ptr %1, i64 324
  %9 = icmp eq i32 %4, 2
  br label %11

10:                                               ; preds = %70
  ret void

11:                                               ; preds = %2, %70
  %.08691 = phi i64 [ 0, %2 ], [ %72, %70 ]
  %.08790 = phi i64 [ 0, %2 ], [ %71, %70 ]
  %12 = trunc nuw nsw i64 %.08790 to i32
  %13 = shl nuw nsw i32 1, %12
  %14 = and i32 %13, %6
  %.not = icmp eq i32 %14, 0
  br i1 %.not, label %62, label %15

15:                                               ; preds = %11
  %16 = and i64 %.08790, 11
  %17 = add nsw i64 %16, -1
  %or.cond5 = icmp ult i64 %17, 2
  %18 = select i1 %9, i1 %or.cond5, i1 false
  %.0 = select nsz i1 %18, float 5.000000e-01, float 0.000000e+00
  %19 = shl nuw nsw i64 %.08790, 2
  %20 = getelementptr inbounds nuw float, ptr %7, i64 %19
  %21 = load float, ptr %20, align 4, !tbaa !31
  %22 = fsub reassoc nsz arcp contract afn float %21, %.0
  %23 = getelementptr inbounds nuw float, ptr %8, i64 %.08790
  %24 = load float, ptr %23, align 4, !tbaa !31
  %25 = tail call reassoc nsz arcp contract afn float @llvm.exp2.f32(float %24)
  %26 = fmul reassoc nsz arcp contract afn float %25, %22
  %27 = getelementptr inbounds nuw float, ptr %0, i64 %.08691
  store float %26, ptr %27, align 4, !tbaa !31
  %28 = or disjoint i64 %19, 1
  %29 = getelementptr inbounds nuw float, ptr %7, i64 %28
  %30 = load float, ptr %29, align 4, !tbaa !31
  %31 = fsub reassoc nsz arcp contract afn float %30, %.0
  %32 = fmul reassoc nsz arcp contract afn float %31, %25
  %33 = or disjoint i64 %.08691, 1
  %34 = getelementptr inbounds nuw float, ptr %0, i64 %33
  store float %32, ptr %34, align 4, !tbaa !31
  %35 = or disjoint i64 %19, 2
  %36 = getelementptr inbounds nuw float, ptr %7, i64 %35
  %37 = load float, ptr %36, align 4, !tbaa !31
  %38 = fsub reassoc nsz arcp contract afn float %37, %.0
  %39 = fmul reassoc nsz arcp contract afn float %38, %25
  %40 = getelementptr i8, ptr %27, i64 8
  store float %39, ptr %40, align 4, !tbaa !31
  %41 = or disjoint i64 %19, 3
  %42 = getelementptr inbounds nuw float, ptr %7, i64 %41
  %43 = load float, ptr %42, align 4, !tbaa !31
  %44 = fsub reassoc nsz arcp contract afn float %43, %.0
  %45 = fmul reassoc nsz arcp contract afn float %44, %25
  %46 = getelementptr i8, ptr %27, i64 12
  store float %45, ptr %46, align 4, !tbaa !31
  %47 = fsub reassoc nsz arcp contract afn float %32, %26
  %48 = tail call reassoc nsz arcp contract afn float @llvm.maxnum.f32(float %47, float 0x3F50624DE0000000)
  %49 = fdiv reassoc nsz arcp contract afn float 1.000000e+00, %48
  %50 = getelementptr i8, ptr %27, i64 16
  store float %49, ptr %50, align 4, !tbaa !31
  %51 = fsub reassoc nsz arcp contract afn float %45, %39
  %52 = tail call reassoc nsz arcp contract afn float @llvm.maxnum.f32(float %51, float 0x3F50624DE0000000)
  %53 = fdiv reassoc nsz arcp contract afn float 1.000000e+00, %52
  %54 = getelementptr i8, ptr %27, i64 20
  store float %53, ptr %54, align 4, !tbaa !31
  %55 = fcmp reassoc nsz arcp contract afn ugt float %21, 0.000000e+00
  %56 = fcmp reassoc nsz arcp contract afn ugt float %30, 0.000000e+00
  %or.cond88 = select i1 %55, i1 true, i1 %56
  br i1 %or.cond88, label %58, label %57

57:                                               ; preds = %15
  store float 0xC7EFFFFFE0000000, ptr %27, align 4, !tbaa !31
  store float 0xC7EFFFFFE0000000, ptr %34, align 4, !tbaa !31
  br label %58

58:                                               ; preds = %57, %15
  %59 = fcmp reassoc nsz arcp contract afn ult float %37, 1.000000e+00
  %60 = fcmp reassoc nsz arcp contract afn ult float %43, 1.000000e+00
  %or.cond89 = select i1 %59, i1 true, i1 %60
  br i1 %or.cond89, label %70, label %61

61:                                               ; preds = %58
  store float 0x47EFFFFFE0000000, ptr %40, align 4, !tbaa !31
  store float 0x47EFFFFFE0000000, ptr %46, align 4, !tbaa !31
  br label %70

62:                                               ; preds = %11
  %63 = getelementptr inbounds nuw float, ptr %0, i64 %.08691
  store float 0xC7EFFFFFE0000000, ptr %63, align 4, !tbaa !31
  %64 = or disjoint i64 %.08691, 1
  %65 = getelementptr inbounds nuw float, ptr %0, i64 %64
  store float 0xC7EFFFFFE0000000, ptr %65, align 4, !tbaa !31
  %66 = getelementptr i8, ptr %63, i64 8
  store float 0x47EFFFFFE0000000, ptr %66, align 4, !tbaa !31
  %67 = getelementptr i8, ptr %63, i64 12
  store float 0x47EFFFFFE0000000, ptr %67, align 4, !tbaa !31
  %68 = getelementptr i8, ptr %63, i64 16
  store float 0.000000e+00, ptr %68, align 4, !tbaa !31
  %69 = getelementptr i8, ptr %63, i64 20
  store float 0.000000e+00, ptr %69, align 4, !tbaa !31
  br label %70

70:                                               ; preds = %58, %61, %62
  %71 = add nuw nsw i64 %.08790, 1
  %72 = add nuw nsw i64 %.08691, 6
  %exitcond.not = icmp eq i64 %71, 16
  br i1 %exitcond.not, label %10, label %11
}